target datalayout = "e-m:e-p270:32:32-p271:32:32-p272:64:64-i64:64-i128:128-f80:128-n8:16:32:64-S128"
target triple = "x86_64-pc-linux-gnu"

%struct._object = type { %union.anon, ptr }
%union.anon = type { i64 }
%struct._typeobject = type { %struct.PyVarObject, ptr, i64, i64, ptr, i64, ptr, ptr, ptr, ptr, ptr, ptr, ptr, ptr, ptr, ptr, ptr, ptr, ptr, i64, ptr, ptr, ptr, ptr, i64, ptr, ptr, ptr, ptr, ptr, ptr, ptr, ptr, ptr, i64, ptr, ptr, ptr, ptr, ptr, ptr, ptr, ptr, ptr, ptr, ptr, i32, ptr, ptr, i8, i16 }
%struct.PyVarObject = type { %struct._object, i64 }

@.str.32 = private unnamed_addr constant [40 x i8] c"../cpython/Modules/_testcapi/watchers.c\00", align 1
@_Py_NoneStruct = external global %struct._object, align 8
@code_watcher_ids = internal global [2 x i32] [i32 -1, i32 -1], align 4
@num_code_object_created_events = internal global [2 x i32] zeroinitializer, align 4
@num_code_object_destroyed_events = internal global [2 x i32] zeroinitializer, align 4
@.str.51 = private unnamed_addr constant [25 x i8] c"PyLong_Check(watcher_id)\00", align 1
@__PRETTY_FUNCTION__.clear_code_watcher = private unnamed_addr constant [53 x i8] c"PyObject *clear_code_watcher(PyObject *, PyObject *)\00", align 1

; Function Attrs: inlinehint nounwind uwtable
define internal i32 @PyType_HasFeature(ptr noundef %0, i64 noundef %1) #3 {
  %3 = alloca ptr, align 8
  %4 = alloca i64, align 8
  %5 = alloca i64, align 8
  store ptr %0, ptr %3, align 8, !tbaa !43
  store i64 %1, ptr %4, align 8, !tbaa !12
  call void @llvm.lifetime.start.p0(i64 8, ptr %5) #6
  %6 = load ptr, ptr %3, align 8, !tbaa !43
  %7 = getelementptr inbounds nuw %struct._typeobject, ptr %6, i32 0, i32 19
  %8 = load i64, ptr %7, align 8, !tbaa !44
  store i64 %8, ptr %5, align 8, !tbaa !12
  %9 = load i64, ptr %5, align 8, !tbaa !12
  %10 = load i64, ptr %4, align 8, !tbaa !12
  %11 = and i64 %9, %10
  %12 = icmp ne i64 %11, 0
  %13 = zext i1 %12 to i32
  call void @llvm.lifetime.end.p0(i64 8, ptr %5) #6
  ret i32 %13
}

; Function Attrs: inlinehint nounwind uwtable
define internal ptr @_Py_TYPE(ptr noundef %0) #3 {
  %2 = alloca ptr, align 8
  store ptr %0, ptr %2, align 8, !tbaa !3
  %3 = load ptr, ptr %2, align 8, !tbaa !3
  %4 = getelementptr inbounds nuw %struct._object, ptr %3, i32 0, i32 1
  %5 = load ptr, ptr %4, align 8, !tbaa !51
  ret ptr %5
}

; Function Attrs: nounwind uwtable
define internal ptr @clear_code_watcher(ptr noundef %0, ptr noundef %1) #0 {
  %3 = alloca ptr, align 8
  %4 = alloca ptr, align 8
  %5 = alloca ptr, align 8
  %6 = alloca i64, align 8
  %7 = alloca i32, align 4
  %8 = alloca i32, align 4
  store ptr %0, ptr %4, align 8, !tbaa !3
  store ptr %1, ptr %5, align 8, !tbaa !3
  %9 = load ptr, ptr %5, align 8, !tbaa !3
  %10 = call ptr @_Py_TYPE(ptr noundef %9)
  %11 = call i32 @PyType_HasFeature(ptr noundef %10, i64 noundef 16777216)
  %12 = icmp ne i32 %11, 0
  br i1 %12, label %13, label %14

13:                                               ; preds = %2
  br label %16

14:                                               ; preds = %2
  call void @__assert_fail(ptr noundef @.str.51, ptr noundef @.str.32, i32 noundef 379, ptr noundef @__PRETTY_FUNCTION__.clear_code_watcher) #7
  unreachable

15:                                               ; No predecessors!
  br label %16

16:                                               ; preds = %15, %13
  call void @llvm.lifetime.start.p0(i64 8, ptr %6) #6
  %17 = load ptr, ptr %5, align 8, !tbaa !3
  %18 = call i64 @PyLong_AsLong(ptr noundef %17)
  store i64 %18, ptr %6, align 8, !tbaa !12
  %19 = load i64, ptr %6, align 8, !tbaa !12
  %20 = trunc i64 %19 to i32
  %21 = call i32 @PyCode_ClearWatcher(i32 noundef %20)
  %22 = icmp slt i32 %21, 0
  br i1 %22, label %23, label %24

23:                                               ; preds = %16
  store ptr null, ptr %3, align 8
  store i32 1, ptr %7, align 4
  br label %56

24:                                               ; preds = %16
  %25 = load i64, ptr %6, align 8, !tbaa !12
  %26 = icmp sge i64 %25, 0
  br i1 %26, label %27, label %55

27:                                               ; preds = %24
  call void @llvm.lifetime.start.p0(i64 4, ptr %8) #6
  store i32 0, ptr %8, align 4, !tbaa !10
  br label %28

28:                                               ; preds = %51, %27
  %29 = load i32, ptr %8, align 4, !tbaa !10
  %30 = icmp slt i32 %29, 2
  br i1 %30, label %32, label %31

31:                                               ; preds = %28
  store i32 2, ptr %7, align 4
  call void @llvm.lifetime.end.p0(i64 4, ptr %8) #6
  br label %54

32:                                               ; preds = %28
  %33 = load i64, ptr %6, align 8, !tbaa !12
  %34 = load i32, ptr %8, align 4, !tbaa !10
  %35 = sext i32 %34 to i64
  %36 = getelementptr [2 x i32], ptr @code_watcher_ids, i64 0, i64 %35
  %37 = load i32, ptr %36, align 4, !tbaa !10
  %38 = sext i32 %37 to i64
  %39 = icmp eq i64 %33, %38
  br i1 %39, label %40, label %50

40:                                               ; preds = %32
  %41 = load i32, ptr %8, align 4, !tbaa !10
  %42 = sext i32 %41 to i64
  %43 = getelementptr [2 x i32], ptr @code_watcher_ids, i64 0, i64 %42
  store i32 -1, ptr %43, align 4, !tbaa !10
  %44 = load i32, ptr %8, align 4, !tbaa !10
  %45 = sext i32 %44 to i64
  %46 = getelementptr [2 x i32], ptr @num_code_object_created_events, i64 0, i64 %45
  store i32 0, ptr %46, align 4, !tbaa !10
  %47 = load i32, ptr %8, align 4, !tbaa !10
  %48 = sext i32 %47 to i64
  %49 = getelementptr [2 x i32], ptr @num_code_object_destroyed_events, i64 0, i64 %48
  store i32 0, ptr %49, align 4, !tbaa !10
  br label %50

50:                                               ; preds = %40, %32
  br label %51

51:                                               ; preds = %50
  %52 = load i32, ptr %8, align 4, !tbaa !10
  %53 = add i32 %52, 1
  store i32 %53, ptr %8, align 4, !tbaa !10
  br label %28, !llvm.loop !16

54:                                               ; preds = %31
  br label %55

55:                                               ; preds = %54, %24
  store ptr @_Py_NoneStruct, ptr %3, align 8
  store i32 1, ptr %7, align 4
  br label %56

56:                                               ; preds = %55, %23
  call void @llvm.lifetime.end.p0(i64 8, ptr %6) #6
  %57 = load ptr, ptr %3, align 8
  ret ptr %57
}