; Function Attrs: nounwind uwtable
define internal noundef ptr @clear_code_watcher(ptr readnone captures(none) %0, ptr noundef %1) #0 {
  %3 = getelementptr i8, ptr %1, i64 8
  %.val = load ptr, ptr %3, align 8, !tbaa !3
  %4 = getelementptr i8, ptr %.val, i64 168
  %.val13 = load i64, ptr %4, align 8, !tbaa !9
  %5 = and i64 %.val13, 16777216
  %.not = icmp eq i64 %5, 0
  br i1 %.not, label %6, label %7

6:                                                ; preds = %2
  tail call void @__assert_fail(ptr noundef nonnull @.str.51, ptr noundef nonnull @.str.32, i32 noundef 379, ptr noundef nonnull @__PRETTY_FUNCTION__.clear_code_watcher) #7
  unreachable

7:                                                ; preds = %2
  %8 = tail call i64 @PyLong_AsLong(ptr noundef nonnull %1) #6
  %9 = trunc i64 %8 to i32
  %10 = tail call i32 @PyCode_ClearWatcher(i32 noundef %9) #6
  %11 = icmp slt i32 %10, 0
  br i1 %11, label %.loopexit, label %12

12:                                               ; preds = %7
  %13 = icmp sgt i64 %8, -1
  br i1 %13, label %.preheader, label %.loopexit

.preheader:                                       ; preds = %12, %22
  %14 = phi i1 [ false, %22 ], [ true, %12 ]
  %indvars.iv = phi i64 [ 1, %22 ], [ 0, %12 ]
  %15 = getelementptr [2 x i32], ptr @code_watcher_ids, i64 0, i64 %indvars.iv
  %16 = load i32, ptr %15, align 4, !tbaa !20
  %17 = sext i32 %16 to i64
  %18 = icmp eq i64 %8, %17
  br i1 %18, label %19, label %22

19:                                               ; preds = %.preheader
  store i32 -1, ptr %15, align 4, !tbaa !20
  %20 = getelementptr [2 x i32], ptr @num_code_object_created_events, i64 0, i64 %indvars.iv
  store i32 0, ptr %20, align 4, !tbaa !20
  %21 = getelementptr [2 x i32], ptr @num_code_object_destroyed_events, i64 0, i64 %indvars.iv
  store i32 0, ptr %21, align 4, !tbaa !20
  br label %22

22:                                               ; preds = %.preheader, %19
  br i1 %14, label %.preheader, label %.loopexit, !llvm.loop !23

.loopexit:                                        ; preds = %22, %12, %7
  %.011 = phi ptr [ null, %7 ], [ @_Py_NoneStruct, %12 ], [ @_Py_NoneStruct, %22 ]
  ret ptr %.011
}